target datalayout = "e-m:e-p270:32:32-p271:32:32-p272:64:64-i64:64-i128:128-f80:128-n8:16:32:64-S128"
target triple = "x86_64-pc-linux-gnu"

%struct.UConverter = type { ptr, ptr, ptr, ptr, ptr, ptr, ptr, i32, i8, i8, i8, i8, i8, [7 x i8], i32, i32, i32, i32, i8, i8, i8, i8, i8, i8, i8, i8, [8 x i8], [32 x i8], [2 x i16], [2 x i16], [32 x i16], i32, [19 x i16], [31 x i8], i8, i8, i8, i32 }
%struct.UConverterToUnicodeArgs = type { i16, i8, ptr, ptr, ptr, ptr, ptr, ptr }

; Function Attrs: mustprogress nounwind uwtable
define internal noundef i32 @_ZL20_UTF16BEGetNextUCharP23UConverterToUnicodeArgsP10UErrorCode(ptr noundef %0, ptr noundef %1) #1 {
  %3 = alloca i32, align 4
  %4 = alloca ptr, align 8
  %5 = alloca ptr, align 8
  %6 = alloca ptr, align 8
  %7 = alloca ptr, align 8
  %8 = alloca i32, align 4
  %9 = alloca i32, align 4
  %10 = alloca i16, align 2
  %11 = alloca ptr, align 8
  %12 = alloca ptr, align 8
  store ptr %0, ptr %4, align 8, !tbaa !8
  store ptr %1, ptr %5, align 8, !tbaa !8
  call void @llvm.lifetime.start.p0(i64 8, ptr %6) #6
  call void @llvm.lifetime.start.p0(i64 8, ptr %7) #6
  call void @llvm.lifetime.start.p0(i64 4, ptr %8) #6
  %13 = load ptr, ptr %4, align 8, !tbaa !8
  %14 = getelementptr inbounds nuw %struct.UConverterToUnicodeArgs, ptr %13, i32 0, i32 2
  %15 = load ptr, ptr %14, align 8, !tbaa !21
  %16 = getelementptr inbounds nuw %struct.UConverter, ptr %15, i32 0, i32 15
  %17 = load i32, ptr %16, align 4, !tbaa !19
  %18 = icmp slt i32 %17, 8
  br i1 %18, label %19, label %20

19:                                               ; preds = %2
  store i32 -9, ptr %3, align 4
  store i32 1, ptr %9, align 4
  br label %166

20:                                               ; preds = %2
  %21 = load ptr, ptr %4, align 8, !tbaa !8
  %22 = getelementptr inbounds nuw %struct.UConverterToUnicodeArgs, ptr %21, i32 0, i32 3
  %23 = load ptr, ptr %22, align 8, !tbaa !26
  store ptr %23, ptr %6, align 8, !tbaa !27
  %24 = load ptr, ptr %4, align 8, !tbaa !8
  %25 = getelementptr inbounds nuw %struct.UConverterToUnicodeArgs, ptr %24, i32 0, i32 4
  %26 = load ptr, ptr %25, align 8, !tbaa !28
  store ptr %26, ptr %7, align 8, !tbaa !27
  %27 = load ptr, ptr %6, align 8, !tbaa !27
  %28 = load ptr, ptr %7, align 8, !tbaa !27
  %29 = icmp uge ptr %27, %28
  br i1 %29, label %30, label %32

30:                                               ; preds = %20
  %31 = load ptr, ptr %5, align 8, !tbaa !8
  store i32 8, ptr %31, align 4, !tbaa !15
  store i32 65535, ptr %3, align 4
  store i32 1, ptr %9, align 4
  br label %166

32:                                               ; preds = %20
  %33 = load ptr, ptr %6, align 8, !tbaa !27
  %34 = getelementptr inbounds i8, ptr %33, i64 2
  %35 = load ptr, ptr %7, align 8, !tbaa !27
  %36 = icmp ugt ptr %34, %35
  br i1 %36, label %37, label %54

37:                                               ; preds = %32
  %38 = load ptr, ptr %6, align 8, !tbaa !27
  %39 = getelementptr inbounds nuw i8, ptr %38, i32 1
  store ptr %39, ptr %6, align 8, !tbaa !27
  %40 = load i8, ptr %38, align 1, !tbaa !38
  %41 = load ptr, ptr %4, align 8, !tbaa !8
  %42 = getelementptr inbounds nuw %struct.UConverterToUnicodeArgs, ptr %41, i32 0, i32 2
  %43 = load ptr, ptr %42, align 8, !tbaa !21
  %44 = getelementptr inbounds nuw %struct.UConverter, ptr %43, i32 0, i32 13
  %45 = getelementptr inbounds [7 x i8], ptr %44, i64 0, i64 0
  store i8 %40, ptr %45, align 1, !tbaa !38
  %46 = load ptr, ptr %4, align 8, !tbaa !8
  %47 = getelementptr inbounds nuw %struct.UConverterToUnicodeArgs, ptr %46, i32 0, i32 2
  %48 = load ptr, ptr %47, align 8, !tbaa !21
  %49 = getelementptr inbounds nuw %struct.UConverter, ptr %48, i32 0, i32 12
  store i8 1, ptr %49, align 8, !tbaa !39
  %50 = load ptr, ptr %6, align 8, !tbaa !27
  %51 = load ptr, ptr %4, align 8, !tbaa !8
  %52 = getelementptr inbounds nuw %struct.UConverterToUnicodeArgs, ptr %51, i32 0, i32 3
  store ptr %50, ptr %52, align 8, !tbaa !26
  %53 = load ptr, ptr %5, align 8, !tbaa !8
  store i32 11, ptr %53, align 4, !tbaa !15
  store i32 65535, ptr %3, align 4
  store i32 1, ptr %9, align 4
  br label %166

54:                                               ; preds = %32
  %55 = load ptr, ptr %6, align 8, !tbaa !27
  %56 = load i8, ptr %55, align 1, !tbaa !38
  %57 = zext i8 %56 to i32
  %58 = shl i32 %57, 8
  %59 = load ptr, ptr %6, align 8, !tbaa !27
  %60 = getelementptr inbounds i8, ptr %59, i64 1
  %61 = load i8, ptr %60, align 1, !tbaa !38
  %62 = zext i8 %61 to i32
  %63 = or i32 %58, %62
  store i32 %63, ptr %8, align 4, !tbaa !29
  %64 = load ptr, ptr %6, align 8, !tbaa !27
  %65 = getelementptr inbounds i8, ptr %64, i64 2
  store ptr %65, ptr %6, align 8, !tbaa !27
  %66 = load i32, ptr %8, align 4, !tbaa !29
  %67 = and i32 %66, -2048
  %68 = icmp eq i32 %67, 55296
  br i1 %68, label %69, label %161

69:                                               ; preds = %54
  %70 = load i32, ptr %8, align 4, !tbaa !29
  %71 = and i32 %70, 1024
  %72 = icmp eq i32 %71, 0
  br i1 %72, label %73, label %136

73:                                               ; preds = %69
  %74 = load ptr, ptr %6, align 8, !tbaa !27
  %75 = getelementptr inbounds i8, ptr %74, i64 2
  %76 = load ptr, ptr %7, align 8, !tbaa !27
  %77 = icmp ule ptr %75, %76
  br i1 %77, label %78, label %105

78:                                               ; preds = %73
  call void @llvm.lifetime.start.p0(i64 2, ptr %10) #6
  %79 = load ptr, ptr %6, align 8, !tbaa !27
  %80 = load i8, ptr %79, align 1, !tbaa !38
  %81 = zext i8 %80 to i16
  %82 = zext i16 %81 to i32
  %83 = shl i32 %82, 8
  %84 = load ptr, ptr %6, align 8, !tbaa !27
  %85 = getelementptr inbounds i8, ptr %84, i64 1
  %86 = load i8, ptr %85, align 1, !tbaa !38
  %87 = zext i8 %86 to i32
  %88 = or i32 %83, %87
  %89 = trunc i32 %88 to i16
  store i16 %89, ptr %10, align 2, !tbaa !36
  %90 = load i16, ptr %10, align 2, !tbaa !36
  %91 = zext i16 %90 to i32
  %92 = and i32 %91, -1024
  %93 = icmp eq i32 %92, 56320
  br i1 %93, label %94, label %103

94:                                               ; preds = %78
  %95 = load i32, ptr %8, align 4, !tbaa !29
  %96 = shl i32 %95, 10
  %97 = load i16, ptr %10, align 2, !tbaa !36
  %98 = zext i16 %97 to i32
  %99 = add nsw i32 %96, %98
  %100 = sub nsw i32 %99, 56613888
  store i32 %100, ptr %8, align 4, !tbaa !29
  %101 = load ptr, ptr %6, align 8, !tbaa !27
  %102 = getelementptr inbounds i8, ptr %101, i64 2
  store ptr %102, ptr %6, align 8, !tbaa !27
  br label %104

103:                                              ; preds = %78
  store i32 -2, ptr %8, align 4, !tbaa !29
  br label %104

104:                                              ; preds = %103, %94
  call void @llvm.lifetime.end.p0(i64 2, ptr %10) #6
  br label %135

105:                                              ; preds = %73
  call void @llvm.lifetime.start.p0(i64 8, ptr %11) #6
  %106 = load ptr, ptr %4, align 8, !tbaa !8
  %107 = getelementptr inbounds nuw %struct.UConverterToUnicodeArgs, ptr %106, i32 0, i32 2
  %108 = load ptr, ptr %107, align 8, !tbaa !21
  %109 = getelementptr inbounds nuw %struct.UConverter, ptr %108, i32 0, i32 13
  %110 = getelementptr inbounds [7 x i8], ptr %109, i64 0, i64 0
  store ptr %110, ptr %11, align 8, !tbaa !27
  %111 = load ptr, ptr %6, align 8, !tbaa !27
  %112 = getelementptr inbounds i8, ptr %111, i64 -2
  store ptr %112, ptr %6, align 8, !tbaa !27
  %113 = load ptr, ptr %7, align 8, !tbaa !27
  %114 = load ptr, ptr %6, align 8, !tbaa !27
  %115 = ptrtoint ptr %113 to i64
  %116 = ptrtoint ptr %114 to i64
  %117 = sub i64 %115, %116
  %118 = trunc i64 %117 to i8
  %119 = load ptr, ptr %4, align 8, !tbaa !8
  %120 = getelementptr inbounds nuw %struct.UConverterToUnicodeArgs, ptr %119, i32 0, i32 2
  %121 = load ptr, ptr %120, align 8, !tbaa !21
  %122 = getelementptr inbounds nuw %struct.UConverter, ptr %121, i32 0, i32 12
  store i8 %118, ptr %122, align 8, !tbaa !39
  br label %123

123:                                              ; preds = %129, %105
  %124 = load ptr, ptr %6, align 8, !tbaa !27
  %125 = getelementptr inbounds nuw i8, ptr %124, i32 1
  store ptr %125, ptr %6, align 8, !tbaa !27
  %126 = load i8, ptr %124, align 1, !tbaa !38
  %127 = load ptr, ptr %11, align 8, !tbaa !27
  %128 = getelementptr inbounds nuw i8, ptr %127, i32 1
  store ptr %128, ptr %11, align 8, !tbaa !27
  store i8 %126, ptr %127, align 1, !tbaa !38
  br label %129

129:                                              ; preds = %123
  %130 = load ptr, ptr %6, align 8, !tbaa !27
  %131 = load ptr, ptr %7, align 8, !tbaa !27
  %132 = icmp ult ptr %130, %131
  br i1 %132, label %123, label %133, !llvm.loop !55

133:                                              ; preds = %129
  store i32 65535, ptr %8, align 4, !tbaa !29
  %134 = load ptr, ptr %5, align 8, !tbaa !8
  store i32 11, ptr %134, align 4, !tbaa !15
  call void @llvm.lifetime.end.p0(i64 8, ptr %11) #6
  br label %135

135:                                              ; preds = %133, %104
  br label %137

136:                                              ; preds = %69
  store i32 -2, ptr %8, align 4, !tbaa !29
  br label %137

137:                                              ; preds = %136, %135
  %138 = load i32, ptr %8, align 4, !tbaa !29
  %139 = icmp slt i32 %138, 0
  br i1 %139, label %140, label %160

140:                                              ; preds = %137
  call void @llvm.lifetime.start.p0(i64 8, ptr %12) #6
  %141 = load ptr, ptr %4, align 8, !tbaa !8
  %142 = getelementptr inbounds nuw %struct.UConverterToUnicodeArgs, ptr %141, i32 0, i32 2
  %143 = load ptr, ptr %142, align 8, !tbaa !21
  %144 = getelementptr inbounds nuw %struct.UConverter, ptr %143, i32 0, i32 13
  %145 = getelementptr inbounds [7 x i8], ptr %144, i64 0, i64 0
  store ptr %145, ptr %12, align 8, !tbaa !27
  %146 = load ptr, ptr %4, align 8, !tbaa !8
  %147 = getelementptr inbounds nuw %struct.UConverterToUnicodeArgs, ptr %146, i32 0, i32 2
  %148 = load ptr, ptr %147, align 8, !tbaa !21
  %149 = getelementptr inbounds nuw %struct.UConverter, ptr %148, i32 0, i32 12
  store i8 2, ptr %149, align 8, !tbaa !39
  %150 = load ptr, ptr %6, align 8, !tbaa !27
  %151 = getelementptr inbounds i8, ptr %150, i64 -2
  %152 = load i8, ptr %151, align 1, !tbaa !38
  %153 = load ptr, ptr %12, align 8, !tbaa !27
  store i8 %152, ptr %153, align 1, !tbaa !38
  %154 = load ptr, ptr %6, align 8, !tbaa !27
  %155 = getelementptr inbounds i8, ptr %154, i64 -1
  %156 = load i8, ptr %155, align 1, !tbaa !38
  %157 = load ptr, ptr %12, align 8, !tbaa !27
  %158 = getelementptr inbounds i8, ptr %157, i64 1
  store i8 %156, ptr %158, align 1, !tbaa !38
  store i32 65535, ptr %8, align 4, !tbaa !29
  %159 = load ptr, ptr %5, align 8, !tbaa !8
  store i32 12, ptr %159, align 4, !tbaa !15
  call void @llvm.lifetime.end.p0(i64 8, ptr %12) #6
  br label %160

160:                                              ; preds = %140, %137
  br label %161

161:                                              ; preds = %160, %54
  %162 = load ptr, ptr %6, align 8, !tbaa !27
  %163 = load ptr, ptr %4, align 8, !tbaa !8
  %164 = getelementptr inbounds nuw %struct.UConverterToUnicodeArgs, ptr %163, i32 0, i32 3
  store ptr %162, ptr %164, align 8, !tbaa !26
  %165 = load i32, ptr %8, align 4, !tbaa !29
  store i32 %165, ptr %3, align 4
  store i32 1, ptr %9, align 4
  br label %166

166:                                              ; preds = %161, %37, %30, %19
  call void @llvm.lifetime.end.p0(i64 4, ptr %8) #6
  call void @llvm.lifetime.end.p0(i64 8, ptr %7) #6
  call void @llvm.lifetime.end.p0(i64 8, ptr %6) #6
  %167 = load i32, ptr %3, align 4
  ret i32 %167
}