; Function Attrs: mustprogress nofree norecurse nosync nounwind memory(readwrite, inaccessiblemem: none) uwtable
define internal noundef range(i32 -9, 10559488) i32 @_ZL20_UTF16BEGetNextUCharP23UConverterToUnicodeArgsP10UErrorCode(ptr noundef captures(none) %0, ptr noundef writeonly captures(none) %1) #3 {
  %3 = getelementptr inbounds nuw i8, ptr %0, i64 8
  %4 = load ptr, ptr %3, align 8, !tbaa !16
  %5 = getelementptr inbounds nuw i8, ptr %4, i64 76
  %6 = load i32, ptr %5, align 4, !tbaa !12
  %7 = icmp slt i32 %6, 8
  br i1 %7, label %69, label %8

8:                                                ; preds = %2
  %9 = getelementptr inbounds nuw i8, ptr %0, i64 16
  %10 = load ptr, ptr %9, align 8, !tbaa !22
  %11 = ptrtoint ptr %10 to i64
  %12 = getelementptr inbounds nuw i8, ptr %0, i64 24
  %13 = load ptr, ptr %12, align 8, !tbaa !23
  %14 = ptrtoint ptr %13 to i64
  %.not = icmp ult ptr %10, %13
  br i1 %.not, label %16, label %15

15:                                               ; preds = %8
  store i32 8, ptr %1, align 4, !tbaa !14
  br label %69

16:                                               ; preds = %8
  %17 = getelementptr inbounds nuw i8, ptr %10, i64 2
  %18 = icmp ugt ptr %17, %13
  br i1 %18, label %19, label %25

19:                                               ; preds = %16
  %20 = getelementptr inbounds nuw i8, ptr %10, i64 1
  %21 = load i8, ptr %10, align 1, !tbaa !28
  %22 = getelementptr inbounds nuw i8, ptr %4, i64 65
  store i8 %21, ptr %22, align 1, !tbaa !28
  %23 = load ptr, ptr %3, align 8, !tbaa !16
  %24 = getelementptr inbounds nuw i8, ptr %23, i64 64
  store i8 1, ptr %24, align 8, !tbaa !29
  store ptr %20, ptr %9, align 8, !tbaa !22
  store i32 11, ptr %1, align 4, !tbaa !14
  br label %69

25:                                               ; preds = %16
  %26 = load i8, ptr %10, align 1, !tbaa !28
  %27 = zext i8 %26 to i32
  %28 = shl nuw nsw i32 %27, 8
  %29 = getelementptr inbounds nuw i8, ptr %10, i64 1
  %30 = load i8, ptr %29, align 1, !tbaa !28
  %31 = zext i8 %30 to i32
  %32 = or disjoint i32 %28, %31
  %33 = and i32 %27, 248
  %34 = icmp eq i32 %33, 216
  br i1 %34, label %35, label %68

35:                                               ; preds = %25
  %36 = and i32 %27, 4
  %37 = icmp eq i32 %36, 0
  br i1 %37, label %38, label %.thread

38:                                               ; preds = %35
  %39 = getelementptr inbounds nuw i8, ptr %10, i64 4
  %.not58 = icmp ugt ptr %39, %13
  br i1 %.not58, label %45, label %40

40:                                               ; preds = %38
  %41 = load i8, ptr %17, align 1, !tbaa !28
  %42 = zext i8 %41 to i32
  %43 = and i32 %42, 252
  %44 = icmp eq i32 %43, 220
  br i1 %44, label %54, label %.thread

45:                                               ; preds = %38
  %46 = getelementptr inbounds nuw i8, ptr %4, i64 65
  %47 = sub i64 %14, %11
  %48 = trunc i64 %47 to i8
  %49 = getelementptr inbounds nuw i8, ptr %4, i64 64
  store i8 %48, ptr %49, align 8, !tbaa !29
  %scevgep = getelementptr i8, ptr %10, i64 %47
  br label %50

50:                                               ; preds = %50, %45
  %.2 = phi ptr [ %10, %45 ], [ %51, %50 ]
  %.048 = phi ptr [ %46, %45 ], [ %53, %50 ]
  %51 = getelementptr inbounds nuw i8, ptr %.2, i64 1
  %52 = load i8, ptr %.2, align 1, !tbaa !28
  %53 = getelementptr inbounds nuw i8, ptr %.048, i64 1
  store i8 %52, ptr %.048, align 1, !tbaa !28
  %exitcond.not = icmp eq ptr %51, %13
  br i1 %exitcond.not, label %.thread62, label %50, !llvm.loop !50

.thread62:                                        ; preds = %50
  store i32 11, ptr %1, align 4, !tbaa !14
  br label %68

54:                                               ; preds = %40
  %55 = shl nuw nsw i32 %42, 8
  %56 = getelementptr inbounds nuw i8, ptr %10, i64 3
  %57 = load i8, ptr %56, align 1, !tbaa !28
  %58 = zext i8 %57 to i32
  %59 = or disjoint i32 %55, %58
  %60 = shl nuw nsw i32 %32, 10
  %61 = add nsw i32 %60, -56613888
  %62 = add nuw nsw i32 %61, %59
  br label %68

.thread:                                          ; preds = %35, %40
  %63 = getelementptr inbounds nuw i8, ptr %4, i64 65
  %64 = getelementptr inbounds nuw i8, ptr %4, i64 64
  store i8 2, ptr %64, align 8, !tbaa !29
  %65 = load i8, ptr %10, align 1, !tbaa !28
  store i8 %65, ptr %63, align 1, !tbaa !28
  %66 = load i8, ptr %29, align 1, !tbaa !28
  %67 = getelementptr inbounds nuw i8, ptr %4, i64 66
  store i8 %66, ptr %67, align 1, !tbaa !28
  store i32 12, ptr %1, align 4, !tbaa !14
  br label %68

68:                                               ; preds = %54, %.thread62, %.thread, %25
  %.050 = phi i32 [ 65535, %.thread ], [ %62, %54 ], [ %32, %25 ], [ 65535, %.thread62 ]
  %.049 = phi ptr [ %17, %.thread ], [ %39, %54 ], [ %17, %25 ], [ %scevgep, %.thread62 ]
  store ptr %.049, ptr %9, align 8, !tbaa !22
  br label %69

69:                                               ; preds = %2, %68, %19, %15
  %.0 = phi i32 [ 65535, %15 ], [ 65535, %19 ], [ %.050, %68 ], [ -9, %2 ]
  ret i32 %.0
}